; Function Attrs: mustprogress uwtable
define void @_ZN17grpc_event_engine12experimental24PosixEnginePollerManagerC2ESt10shared_ptrINS0_10ThreadPoolEE(ptr noundef nonnull align 8 dereferenceable(49) %this, ptr nocapture noundef %executor) unnamed_addr #3 align 2 personality ptr @__gxx_personality_v0 {
entry:
  store ptr getelementptr inbounds ({ [6 x ptr] }, ptr @_ZTVN17grpc_event_engine12experimental24PosixEnginePollerManagerE, i64 0, i32 0, i64 2), ptr %this, align 8
  %poller_ = getelementptr inbounds i8, ptr %this, i64 8
  tail call void @_ZN17grpc_event_engine12experimental17MakeDefaultPollerEPNS0_9SchedulerE(ptr nonnull sret(%"class.std::shared_ptr.54") align 8 %poller_, ptr noundef nonnull %this)
  %poller_state_ = getelementptr inbounds i8, ptr %this, i64 24
  store i32 1, ptr %poller_state_, align 8
  %executor_ = getelementptr inbounds i8, ptr %this, i64 32
  %0 = load ptr, ptr %executor, align 8
  store ptr %0, ptr %executor_, align 8
  %_M_refcount.i.i = getelementptr inbounds i8, ptr %this, i64 40
  store ptr null, ptr %_M_refcount.i.i, align 8
  %_M_refcount4.i.i = getelementptr inbounds i8, ptr %executor, i64 8
  %1 = load ptr, ptr %_M_refcount4.i.i, align 8
  store ptr null, ptr %_M_refcount4.i.i, align 8
  store ptr %1, ptr %_M_refcount.i.i, align 8
  store ptr null, ptr %executor, align 8
  %trigger_shutdown_called_ = getelementptr inbounds i8, ptr %this, i64 48
  store i8 0, ptr %trigger_shutdown_called_, align 8
  ret void
}